; Function Attrs: mustprogress uwtable
define void @Z3_reset_memory() local_unnamed_addr #3 personality ptr @__gxx_personality_v0 {
  %1 = atomicrmw xchg ptr @g_z3_log_enabled, i8 0 seq_cst, align 1
  %2 = trunc i8 %1 to i1
  br i1 %2, label %3, label %10

3:                                                ; preds = %0
  invoke void @_Z19log_Z3_reset_memoryv()
          to label %10 unwind label %.thread

.thread:                                          ; preds = %3
  %4 = landingpad { ptr, i32 }
          cleanup
  br label %7

5:                                                ; preds = %11, %10
  %6 = landingpad { ptr, i32 }
          cleanup
  br i1 %2, label %7, label %_ZN10z3_log_ctxD2Ev.exit, !prof !550

7:                                                ; preds = %.thread, %5
  %8 = phi { ptr, i32 } [ %4, %.thread ], [ %6, %5 ]
  store atomic i8 1, ptr @g_z3_log_enabled seq_cst, align 1
  br label %_ZN10z3_log_ctxD2Ev.exit

_ZN10z3_log_ctxD2Ev.exit:                         ; preds = %5, %7
  %9 = phi { ptr, i32 } [ %6, %5 ], [ %8, %7 ]
  resume { ptr, i32 } %9

10:                                               ; preds = %3, %0
  invoke void @_ZN6memory8finalizeEb(i1 noundef zeroext false)
          to label %11 unwind label %5

11:                                               ; preds = %10
  invoke void @_ZN6memory10initializeEm(i64 noundef 0)
          to label %12 unwind label %5

12:                                               ; preds = %11
  br i1 %2, label %13, label %_ZN10z3_log_ctxD2Ev.exit1, !prof !442

13:                                               ; preds = %12
  store atomic i8 1, ptr @g_z3_log_enabled seq_cst, align 1
  br label %_ZN10z3_log_ctxD2Ev.exit1

_ZN10z3_log_ctxD2Ev.exit1:                        ; preds = %12, %13
  ret void
}